target datalayout = "e-m:e-p270:32:32-p271:32:32-p272:64:64-i64:64-i128:128-f80:128-n8:16:32:64-S128"
target triple = "x86_64-pc-linux-gnu"

%struct.ossl_cmp_itav_st = type { ptr, %union.anon }
%union.anon = type { ptr }

@OSSL_CMP_ITAV_it.local_it = internal constant { i8, [7 x i8], i64, ptr, i64, ptr, i64, ptr } { i8 1, [7 x i8] zeroinitializer, i64 16, ptr @OSSL_CMP_ITAV_seq_tt, i64 2, ptr null, i64 16, ptr @.str.6 }, align 8

; Function Attrs: nounwind uwtable
define ptr @OSSL_CMP_ITAV_it() #0 {
  ret ptr @OSSL_CMP_ITAV_it.local_it
}

; Function Attrs: nounwind uwtable
define void @OSSL_CMP_ITAV_free(ptr noundef %0) #0 {
  %2 = alloca ptr, align 8
  store ptr %0, ptr %2, align 8, !tbaa !28
  %3 = load ptr, ptr %2, align 8, !tbaa !28
  %4 = call ptr @OSSL_CMP_ITAV_it()
  call void @ASN1_item_free(ptr noundef %3, ptr noundef %4)
  ret void
}

; Function Attrs: inlinehint nounwind uwtable
define internal ptr @ossl_check_X509_freefunc_type(ptr noundef %0) #3 {
  %2 = alloca ptr, align 8
  store ptr %0, ptr %2, align 8, !tbaa !69
  %3 = load ptr, ptr %2, align 8, !tbaa !69
  ret ptr %3
}

; Function Attrs: inlinehint nounwind uwtable
define internal ptr @ossl_check_X509_copyfunc_type(ptr noundef %0) #3 {
  %2 = alloca ptr, align 8
  store ptr %0, ptr %2, align 8, !tbaa !69
  %3 = load ptr, ptr %2, align 8, !tbaa !69
  ret ptr %3
}

; Function Attrs: inlinehint nounwind uwtable
define internal ptr @ossl_check_const_X509_sk_type(ptr noundef %0) #3 {
  %2 = alloca ptr, align 8
  store ptr %0, ptr %2, align 8, !tbaa !67
  %3 = load ptr, ptr %2, align 8, !tbaa !67
  ret ptr %3
}

; Function Attrs: nounwind uwtable
define ptr @OSSL_CMP_ITAV_new() #0 {
  %1 = call ptr @OSSL_CMP_ITAV_it()
  %2 = call ptr @ASN1_item_new(ptr noundef %1)
  ret ptr %2
}

; Function Attrs: nounwind uwtable
define ptr @OSSL_CMP_ITAV_new_caCerts(ptr noundef %0) #0 {
  %2 = alloca ptr, align 8
  %3 = alloca ptr, align 8
  %4 = alloca ptr, align 8
  %5 = alloca i32, align 4
  store ptr %0, ptr %3, align 8, !tbaa !67
  call void @llvm.lifetime.start.p0(i64 8, ptr %4) #4
  %6 = call ptr @OSSL_CMP_ITAV_new()
  store ptr %6, ptr %4, align 8, !tbaa !28
  %7 = load ptr, ptr %4, align 8, !tbaa !28
  %8 = icmp eq ptr %7, null
  br i1 %8, label %9, label %10

9:                                                ; preds = %1
  store ptr null, ptr %2, align 8
  store i32 1, ptr %5, align 4
  br label %31

10:                                               ; preds = %1
  %11 = load ptr, ptr %3, align 8, !tbaa !67
  %12 = call ptr @ossl_check_const_X509_sk_type(ptr noundef %11)
  %13 = call i32 @OPENSSL_sk_num(ptr noundef %12)
  %14 = icmp sgt i32 %13, 0
  br i1 %14, label %15, label %26

15:                                               ; preds = %10
  %16 = load ptr, ptr %3, align 8, !tbaa !67
  %17 = call ptr @ossl_check_const_X509_sk_type(ptr noundef %16)
  %18 = call ptr @ossl_check_X509_copyfunc_type(ptr noundef @X509_dup)
  %19 = call ptr @ossl_check_X509_freefunc_type(ptr noundef @X509_free)
  %20 = call ptr @OPENSSL_sk_deep_copy(ptr noundef %17, ptr noundef %18, ptr noundef %19)
  %21 = load ptr, ptr %4, align 8, !tbaa !28
  %22 = getelementptr inbounds nuw %struct.ossl_cmp_itav_st, ptr %21, i32 0, i32 1
  store ptr %20, ptr %22, align 8, !tbaa !56
  %23 = icmp eq ptr %20, null
  br i1 %23, label %24, label %26

24:                                               ; preds = %15
  %25 = load ptr, ptr %4, align 8, !tbaa !28
  call void @OSSL_CMP_ITAV_free(ptr noundef %25)
  store ptr null, ptr %2, align 8
  store i32 1, ptr %5, align 4
  br label %31

26:                                               ; preds = %15, %10
  %27 = call ptr @OBJ_nid2obj(i32 noundef 1223)
  %28 = load ptr, ptr %4, align 8, !tbaa !28
  %29 = getelementptr inbounds nuw %struct.ossl_cmp_itav_st, ptr %28, i32 0, i32 0
  store ptr %27, ptr %29, align 8, !tbaa !54
  %30 = load ptr, ptr %4, align 8, !tbaa !28
  store ptr %30, ptr %2, align 8
  store i32 1, ptr %5, align 4
  br label %31

31:                                               ; preds = %26, %24, %9
  call void @llvm.lifetime.end.p0(i64 8, ptr %4) #4
  %32 = load ptr, ptr %2, align 8
  ret ptr %32
}