; Function Attrs: nounwind uwtable
define ptr @OSSL_CMP_ITAV_new_caCerts(ptr noundef %0) local_unnamed_addr #1 {
  %2 = tail call ptr @ASN1_item_new(ptr noundef nonnull @OSSL_CMP_ITAV_it.local_it) #6
  %3 = icmp eq ptr %2, null
  br i1 %3, label %14, label %4

4:                                                ; preds = %1
  %5 = tail call i32 @OPENSSL_sk_num(ptr noundef %0) #6
  %6 = icmp sgt i32 %5, 0
  br i1 %6, label %7, label %12

7:                                                ; preds = %4
  %8 = tail call ptr @OPENSSL_sk_deep_copy(ptr noundef %0, ptr noundef nonnull @X509_dup, ptr noundef nonnull @X509_free) #6
  %9 = getelementptr inbounds nuw i8, ptr %2, i64 8
  store ptr %8, ptr %9, align 8, !tbaa !9
  %10 = icmp eq ptr %8, null
  br i1 %10, label %11, label %12

11:                                               ; preds = %7
  tail call void @ASN1_item_free(ptr noundef nonnull %2, ptr noundef nonnull @OSSL_CMP_ITAV_it.local_it) #6
  br label %14

12:                                               ; preds = %7, %4
  %13 = tail call ptr @OBJ_nid2obj(i32 noundef 1223) #6
  store ptr %13, ptr %2, align 8, !tbaa !3
  br label %14

14:                                               ; preds = %1, %12, %11
  %.0 = phi ptr [ null, %11 ], [ %2, %12 ], [ null, %1 ]
  ret ptr %.0
}